target datalayout = "e-m:e-p270:32:32-p271:32:32-p272:64:64-i64:64-i128:128-f80:128-n8:16:32:64-S128"
target triple = "x86_64-unknown-linux-gnu"

%"class.arrow::Status" = type { ptr }
%"class.arrow::Result.2" = type { %"class.arrow::Status", %"class.arrow::internal::AlignedStorage.5" }
%"class.arrow::internal::AlignedStorage.5" = type { %"union.std::aligned_storage<16, 8>::type" }
%"union.std::aligned_storage<16, 8>::type" = type { [16 x i8] }

; Function Attrs: uwtable
define void @_ZTv0_n40_N5arrow2io11StdinStream4ReadEl(ptr noalias sret(%"class.arrow::Result.2") align 8 %agg.result, ptr noundef %this, i64 noundef %nbytes) unnamed_addr #0 align 2 {
entry:
  %result.ptr = alloca ptr, align 8
  %this.addr = alloca ptr, align 8
  %nbytes.addr = alloca i64, align 8
  store ptr %agg.result, ptr %result.ptr, align 8
  store ptr %this, ptr %this.addr, align 8
  store i64 %nbytes, ptr %nbytes.addr, align 8
  %this1 = load ptr, ptr %this.addr, align 8
  %0 = load ptr, ptr %this1, align 8
  %1 = getelementptr inbounds i8, ptr %0, i64 -40
  %2 = load i64, ptr %1, align 8
  %3 = getelementptr inbounds i8, ptr %this1, i64 %2
  %4 = load i64, ptr %nbytes.addr, align 8
  tail call void @_ZN5arrow2io11StdinStream4ReadEl(ptr sret(%"class.arrow::Result.2") align 8 %agg.result, ptr noundef nonnull align 8 dereferenceable(16) %3, i64 noundef %4)
  ret void
}